target datalayout = "e-m:e-p270:32:32-p271:32:32-p272:64:64-i64:64-i128:128-f80:128-n8:16:32:64-S128"
target triple = "x86_64-pc-linux-gnu"

@.str.153 = private unnamed_addr constant [38 x i8] c"Hostname %s does%s match certificate\0A\00", align 1
@.str.154 = private unnamed_addr constant [1 x i8] zeroinitializer, align 1
@.str.155 = private unnamed_addr constant [5 x i8] c" NOT\00", align 1
@.str.156 = private unnamed_addr constant [35 x i8] c"Email %s does%s match certificate\0A\00", align 1
@.str.157 = private unnamed_addr constant [32 x i8] c"IP %s does%s match certificate\0A\00", align 1

; Function Attrs: nounwind uwtable
define dso_local i32 @check_cert_attributes(ptr noundef %0, ptr noundef %1, ptr noundef %2, ptr noundef %3, ptr noundef %4, i32 noundef %5) #0 {
  %7 = alloca i32, align 4
  %8 = alloca ptr, align 8
  %9 = alloca ptr, align 8
  %10 = alloca ptr, align 8
  %11 = alloca ptr, align 8
  %12 = alloca ptr, align 8
  %13 = alloca i32, align 4
  %14 = alloca i32, align 4
  %15 = alloca i32, align 4
  %16 = alloca i32, align 4
  %17 = alloca i32, align 4
  %18 = alloca i32, align 4
  store ptr %0, ptr %8, align 8, !tbaa !35
  store ptr %1, ptr %9, align 8, !tbaa !37
  store ptr %2, ptr %10, align 8, !tbaa !9
  store ptr %3, ptr %11, align 8, !tbaa !9
  store ptr %4, ptr %12, align 8, !tbaa !9
  store i32 %5, ptr %13, align 4, !tbaa !25
  call void @llvm.lifetime.start.p0(i64 4, ptr %14) #12
  store i32 0, ptr %14, align 4, !tbaa !25
  call void @llvm.lifetime.start.p0(i64 4, ptr %15) #12
  store i32 0, ptr %15, align 4, !tbaa !25
  call void @llvm.lifetime.start.p0(i64 4, ptr %16) #12
  store i32 0, ptr %16, align 4, !tbaa !25
  call void @llvm.lifetime.start.p0(i64 4, ptr %17) #12
  store i32 1, ptr %17, align 4, !tbaa !25
  %19 = load ptr, ptr %9, align 8, !tbaa !37
  %20 = icmp eq ptr %19, null
  br i1 %20, label %21, label %22

21:                                               ; preds = %6
  store i32 0, ptr %7, align 4
  store i32 1, ptr %18, align 4
  br label %99

22:                                               ; preds = %6
  %23 = load ptr, ptr %10, align 8, !tbaa !9
  %24 = icmp ne ptr %23, null
  br i1 %24, label %25, label %47

25:                                               ; preds = %22
  %26 = load ptr, ptr %9, align 8, !tbaa !37
  %27 = load ptr, ptr %10, align 8, !tbaa !9
  %28 = call i32 @X509_check_host(ptr noundef %26, ptr noundef %27, i64 noundef 0, i32 noundef 0, ptr noundef null)
  store i32 %28, ptr %14, align 4, !tbaa !25
  %29 = load i32, ptr %13, align 4, !tbaa !25
  %30 = icmp ne i32 %29, 0
  br i1 %30, label %31, label %38

31:                                               ; preds = %25
  %32 = load ptr, ptr %8, align 8, !tbaa !35
  %33 = load ptr, ptr %10, align 8, !tbaa !9
  %34 = load i32, ptr %14, align 4, !tbaa !25
  %35 = icmp eq i32 %34, 1
  %36 = select i1 %35, ptr @.str.154, ptr @.str.155
  %37 = call i32 (ptr, ptr, ...) @BIO_printf(ptr noundef %32, ptr noundef @.str.153, ptr noundef %33, ptr noundef %36)
  br label %38

38:                                               ; preds = %31, %25
  %39 = load i32, ptr %17, align 4, !tbaa !25
  %40 = icmp ne i32 %39, 0
  br i1 %40, label %41, label %44

41:                                               ; preds = %38
  %42 = load i32, ptr %14, align 4, !tbaa !25
  %43 = icmp sgt i32 %42, 0
  br label %44

44:                                               ; preds = %41, %38
  %45 = phi i1 [ false, %38 ], [ %43, %41 ]
  %46 = zext i1 %45 to i32
  store i32 %46, ptr %17, align 4, !tbaa !25
  br label %47

47:                                               ; preds = %44, %22
  %48 = load ptr, ptr %11, align 8, !tbaa !9
  %49 = icmp ne ptr %48, null
  br i1 %49, label %50, label %72

50:                                               ; preds = %47
  %51 = load ptr, ptr %9, align 8, !tbaa !37
  %52 = load ptr, ptr %11, align 8, !tbaa !9
  %53 = call i32 @X509_check_email(ptr noundef %51, ptr noundef %52, i64 noundef 0, i32 noundef 0)
  store i32 %53, ptr %15, align 4, !tbaa !25
  %54 = load i32, ptr %13, align 4, !tbaa !25
  %55 = icmp ne i32 %54, 0
  br i1 %55, label %56, label %63

56:                                               ; preds = %50
  %57 = load ptr, ptr %8, align 8, !tbaa !35
  %58 = load ptr, ptr %11, align 8, !tbaa !9
  %59 = load i32, ptr %15, align 4, !tbaa !25
  %60 = icmp ne i32 %59, 0
  %61 = select i1 %60, ptr @.str.154, ptr @.str.155
  %62 = call i32 (ptr, ptr, ...) @BIO_printf(ptr noundef %57, ptr noundef @.str.156, ptr noundef %58, ptr noundef %61)
  br label %63

63:                                               ; preds = %56, %50
  %64 = load i32, ptr %17, align 4, !tbaa !25
  %65 = icmp ne i32 %64, 0
  br i1 %65, label %66, label %69

66:                                               ; preds = %63
  %67 = load i32, ptr %15, align 4, !tbaa !25
  %68 = icmp sgt i32 %67, 0
  br label %69

69:                                               ; preds = %66, %63
  %70 = phi i1 [ false, %63 ], [ %68, %66 ]
  %71 = zext i1 %70 to i32
  store i32 %71, ptr %17, align 4, !tbaa !25
  br label %72

72:                                               ; preds = %69, %47
  %73 = load ptr, ptr %12, align 8, !tbaa !9
  %74 = icmp ne ptr %73, null
  br i1 %74, label %75, label %97

75:                                               ; preds = %72
  %76 = load ptr, ptr %9, align 8, !tbaa !37
  %77 = load ptr, ptr %12, align 8, !tbaa !9
  %78 = call i32 @X509_check_ip_asc(ptr noundef %76, ptr noundef %77, i32 noundef 0)
  store i32 %78, ptr %16, align 4, !tbaa !25
  %79 = load i32, ptr %13, align 4, !tbaa !25
  %80 = icmp ne i32 %79, 0
  br i1 %80, label %81, label %88

81:                                               ; preds = %75
  %82 = load ptr, ptr %8, align 8, !tbaa !35
  %83 = load ptr, ptr %12, align 8, !tbaa !9
  %84 = load i32, ptr %16, align 4, !tbaa !25
  %85 = icmp ne i32 %84, 0
  %86 = select i1 %85, ptr @.str.154, ptr @.str.155
  %87 = call i32 (ptr, ptr, ...) @BIO_printf(ptr noundef %82, ptr noundef @.str.157, ptr noundef %83, ptr noundef %86)
  br label %88

88:                                               ; preds = %81, %75
  %89 = load i32, ptr %17, align 4, !tbaa !25
  %90 = icmp ne i32 %89, 0
  br i1 %90, label %91, label %94

91:                                               ; preds = %88
  %92 = load i32, ptr %16, align 4, !tbaa !25
  %93 = icmp sgt i32 %92, 0
  br label %94

94:                                               ; preds = %91, %88
  %95 = phi i1 [ false, %88 ], [ %93, %91 ]
  %96 = zext i1 %95 to i32
  store i32 %96, ptr %17, align 4, !tbaa !25
  br label %97

97:                                               ; preds = %94, %72
  %98 = load i32, ptr %17, align 4, !tbaa !25
  store i32 %98, ptr %7, align 4
  store i32 1, ptr %18, align 4
  br label %99

99:                                               ; preds = %97, %21
  call void @llvm.lifetime.end.p0(i64 4, ptr %17) #12
  call void @llvm.lifetime.end.p0(i64 4, ptr %16) #12
  call void @llvm.lifetime.end.p0(i64 4, ptr %15) #12
  call void @llvm.lifetime.end.p0(i64 4, ptr %14) #12
  %100 = load i32, ptr %7, align 4
  ret i32 %100
}