; Function Attrs: nounwind uwtable
define dso_local range(i32 0, 2) i32 @check_cert_attributes(ptr noundef %0, ptr noundef %1, ptr noundef %2, ptr noundef %3, ptr noundef %4, i32 noundef %5) local_unnamed_addr #0 {
  %7 = icmp eq ptr %1, null
  br i1 %7, label %40, label %8

8:                                                ; preds = %6
  %.not = icmp eq ptr %2, null
  br i1 %.not, label %18, label %9

9:                                                ; preds = %8
  %10 = tail call i32 @X509_check_host(ptr noundef nonnull %1, ptr noundef nonnull %2, i64 noundef 0, i32 noundef 0, ptr noundef null) #27
  %.not34 = icmp eq i32 %5, 0
  br i1 %.not34, label %15, label %11

11:                                               ; preds = %9
  %12 = icmp eq i32 %10, 1
  %13 = select i1 %12, ptr @.str.154, ptr @.str.155
  %14 = tail call i32 (ptr, ptr, ...) @BIO_printf(ptr noundef %0, ptr noundef nonnull @.str.153, ptr noundef nonnull %2, ptr noundef nonnull %13) #27
  br label %15

15:                                               ; preds = %11, %9
  %16 = icmp sgt i32 %10, 0
  %17 = zext i1 %16 to i32
  br label %18

18:                                               ; preds = %15, %8
  %.0 = phi i32 [ %17, %15 ], [ 1, %8 ]
  %.not35 = icmp eq ptr %3, null
  br i1 %.not35, label %29, label %19

19:                                               ; preds = %18
  %20 = tail call i32 @X509_check_email(ptr noundef nonnull %1, ptr noundef nonnull %3, i64 noundef 0, i32 noundef 0) #27
  %.not36 = icmp eq i32 %5, 0
  br i1 %.not36, label %24, label %21

21:                                               ; preds = %19
  %.not37 = icmp eq i32 %20, 0
  %22 = select i1 %.not37, ptr @.str.155, ptr @.str.154
  %23 = tail call i32 (ptr, ptr, ...) @BIO_printf(ptr noundef %0, ptr noundef nonnull @.str.156, ptr noundef nonnull %3, ptr noundef nonnull %22) #27
  br label %24

24:                                               ; preds = %21, %19
  %25 = icmp ne i32 %.0, 0
  %26 = icmp sgt i32 %20, 0
  %27 = select i1 %25, i1 %26, i1 false
  %28 = zext i1 %27 to i32
  br label %29

29:                                               ; preds = %24, %18
  %.1 = phi i32 [ %28, %24 ], [ %.0, %18 ]
  %.not38 = icmp eq ptr %4, null
  br i1 %.not38, label %40, label %30

30:                                               ; preds = %29
  %31 = tail call i32 @X509_check_ip_asc(ptr noundef nonnull %1, ptr noundef nonnull %4, i32 noundef 0) #27
  %.not39 = icmp eq i32 %5, 0
  br i1 %.not39, label %35, label %32

32:                                               ; preds = %30
  %.not40 = icmp eq i32 %31, 0
  %33 = select i1 %.not40, ptr @.str.155, ptr @.str.154
  %34 = tail call i32 (ptr, ptr, ...) @BIO_printf(ptr noundef %0, ptr noundef nonnull @.str.157, ptr noundef nonnull %4, ptr noundef nonnull %33) #27
  br label %35

35:                                               ; preds = %32, %30
  %36 = icmp ne i32 %.1, 0
  %37 = icmp sgt i32 %31, 0
  %38 = select i1 %36, i1 %37, i1 false
  %39 = zext i1 %38 to i32
  br label %40

40:                                               ; preds = %29, %35, %6
  %.029 = phi i32 [ 0, %6 ], [ %39, %35 ], [ %.1, %29 ]
  ret i32 %.029
}